target datalayout = "e-m:e-p270:32:32-p271:32:32-p272:64:64-i64:64-i128:128-f80:128-n8:16:32:64-S128"
target triple = "x86_64-pc-linux-gnu"

%struct.ident_t = type { i32, i32, i32, i32, ptr }
%"class.ncnn::Mat" = type { ptr, ptr, i64, i32, ptr, i32, i32, i32, i32, i32, i64 }

@1 = private unnamed_addr constant %struct.ident_t { i32 0, i32 514, i32 0, i32 22, ptr @0 }, align 8

; Function Attrs: alwaysinline mustprogress nounwind uwtable
define internal void @_ZN4ncnnL8fastFreeEPv(ptr noundef %0) #3 {
  %2 = alloca ptr, align 8
  store ptr %0, ptr %2, align 8, !tbaa !58
  %3 = load ptr, ptr %2, align 8, !tbaa !58
  %4 = icmp ne ptr %3, null
  br i1 %4, label %5, label %7

5:                                                ; preds = %1
  %6 = load ptr, ptr %2, align 8, !tbaa !58
  call void @free(ptr noundef %6) #9
  br label %7

7:                                                ; preds = %5, %1
  ret void
}

; Function Attrs: alwaysinline mustprogress nounwind uwtable
define internal noundef i64 @_ZN4ncnnL9alignSizeEmi(i64 noundef %0, i32 noundef %1) #3 {
  %3 = alloca i64, align 8
  %4 = alloca i32, align 4
  store i64 %0, ptr %3, align 8, !tbaa !47
  store i32 %1, ptr %4, align 4, !tbaa !39
  %5 = load i64, ptr %3, align 8, !tbaa !47
  %6 = load i32, ptr %4, align 4, !tbaa !39
  %7 = sext i32 %6 to i64
  %8 = add i64 %5, %7
  %9 = sub i64 %8, 1
  %10 = load i32, ptr %4, align 4, !tbaa !39
  %11 = sub nsw i32 0, %10
  %12 = sext i32 %11 to i64
  %13 = and i64 %9, %12
  ret i64 %13
}

; Function Attrs: alwaysinline mustprogress uwtable
define linkonce_odr hidden void @_ZN4ncnn3Mat7releaseEv(ptr noundef nonnull align 8 dereferenceable(72) %0) #6 comdat align 2 {
  %2 = alloca ptr, align 8
  %3 = alloca i32, align 4
  %4 = alloca i32, align 4
  store ptr %0, ptr %2, align 8, !tbaa !35
  %5 = load ptr, ptr %2, align 8
  %6 = getelementptr inbounds nuw %"class.ncnn::Mat", ptr %5, i32 0, i32 1
  %7 = load ptr, ptr %6, align 8, !tbaa !54
  %8 = icmp ne ptr %7, null
  br i1 %8, label %9, label %32

9:                                                ; preds = %1
  %10 = getelementptr inbounds nuw %"class.ncnn::Mat", ptr %5, i32 0, i32 1
  %11 = load ptr, ptr %10, align 8, !tbaa !54
  store i32 -1, ptr %3, align 4, !tbaa !39
  %12 = load i32, ptr %3, align 4
  %13 = atomicrmw add ptr %11, i32 %12 acq_rel, align 4
  store i32 %13, ptr %4, align 4
  %14 = load i32, ptr %4, align 4, !tbaa !39
  %15 = icmp eq i32 %14, 1
  br i1 %15, label %16, label %32

16:                                               ; preds = %9
  %17 = getelementptr inbounds nuw %"class.ncnn::Mat", ptr %5, i32 0, i32 4
  %18 = load ptr, ptr %17, align 8, !tbaa !56
  %19 = icmp ne ptr %18, null
  br i1 %19, label %20, label %28

20:                                               ; preds = %16
  %21 = getelementptr inbounds nuw %"class.ncnn::Mat", ptr %5, i32 0, i32 4
  %22 = load ptr, ptr %21, align 8, !tbaa !56
  %23 = getelementptr inbounds nuw %"class.ncnn::Mat", ptr %5, i32 0, i32 0
  %24 = load ptr, ptr %23, align 8, !tbaa !53
  %25 = load ptr, ptr %22, align 8, !tbaa !9
  %26 = getelementptr inbounds ptr, ptr %25, i64 3
  %27 = load ptr, ptr %26, align 8
  call void %27(ptr noundef nonnull align 8 dereferenceable(8) %22, ptr noundef %24)
  br label %31

28:                                               ; preds = %16
  %29 = getelementptr inbounds nuw %"class.ncnn::Mat", ptr %5, i32 0, i32 0
  %30 = load ptr, ptr %29, align 8, !tbaa !53
  call void @_ZN4ncnnL8fastFreeEPv(ptr noundef %30)
  br label %31

31:                                               ; preds = %28, %20
  br label %32

32:                                               ; preds = %31, %9, %1
  %33 = getelementptr inbounds nuw %"class.ncnn::Mat", ptr %5, i32 0, i32 0
  store ptr null, ptr %33, align 8, !tbaa !53
  %34 = getelementptr inbounds nuw %"class.ncnn::Mat", ptr %5, i32 0, i32 2
  store i64 0, ptr %34, align 8, !tbaa !46
  %35 = getelementptr inbounds nuw %"class.ncnn::Mat", ptr %5, i32 0, i32 3
  store i32 0, ptr %35, align 8, !tbaa !55
  %36 = getelementptr inbounds nuw %"class.ncnn::Mat", ptr %5, i32 0, i32 5
  store i32 0, ptr %36, align 8, !tbaa !38
  %37 = getelementptr inbounds nuw %"class.ncnn::Mat", ptr %5, i32 0, i32 6
  store i32 0, ptr %37, align 4, !tbaa !42
  %38 = getelementptr inbounds nuw %"class.ncnn::Mat", ptr %5, i32 0, i32 7
  store i32 0, ptr %38, align 8, !tbaa !43
  %39 = getelementptr inbounds nuw %"class.ncnn::Mat", ptr %5, i32 0, i32 8
  store i32 0, ptr %39, align 4, !tbaa !44
  %40 = getelementptr inbounds nuw %"class.ncnn::Mat", ptr %5, i32 0, i32 9
  store i32 0, ptr %40, align 8, !tbaa !45
  %41 = getelementptr inbounds nuw %"class.ncnn::Mat", ptr %5, i32 0, i32 10
  store i64 0, ptr %41, align 8, !tbaa !57
  %42 = getelementptr inbounds nuw %"class.ncnn::Mat", ptr %5, i32 0, i32 1
  store ptr null, ptr %42, align 8, !tbaa !54
  ret void
}

; Function Attrs: alwaysinline mustprogress nounwind uwtable
define linkonce_odr hidden void @_ZN4ncnn3MatC2EiiiiPvmiPNS_9AllocatorE(ptr noundef nonnull align 8 dereferenceable(72) %0, i32 noundef %1, i32 noundef %2, i32 noundef %3, i32 noundef %4, ptr noundef %5, i64 noundef %6, i32 noundef %7, ptr noundef %8) unnamed_addr #3 comdat align 2 {
  %10 = alloca ptr, align 8
  %11 = alloca i32, align 4
  %12 = alloca i32, align 4
  %13 = alloca i32, align 4
  %14 = alloca i32, align 4
  %15 = alloca ptr, align 8
  %16 = alloca i64, align 8
  %17 = alloca i32, align 4
  %18 = alloca ptr, align 8
  store ptr %0, ptr %10, align 8, !tbaa !35
  store i32 %1, ptr %11, align 4, !tbaa !39
  store i32 %2, ptr %12, align 4, !tbaa !39
  store i32 %3, ptr %13, align 4, !tbaa !39
  store i32 %4, ptr %14, align 4, !tbaa !39
  store ptr %5, ptr %15, align 8, !tbaa !58
  store i64 %6, ptr %16, align 8, !tbaa !47
  store i32 %7, ptr %17, align 4, !tbaa !39
  store ptr %8, ptr %18, align 8, !tbaa !70
  %19 = load ptr, ptr %10, align 8
  %20 = getelementptr inbounds nuw %"class.ncnn::Mat", ptr %19, i32 0, i32 0
  %21 = load ptr, ptr %15, align 8, !tbaa !58
  store ptr %21, ptr %20, align 8, !tbaa !53
  %22 = getelementptr inbounds nuw %"class.ncnn::Mat", ptr %19, i32 0, i32 1
  store ptr null, ptr %22, align 8, !tbaa !54
  %23 = getelementptr inbounds nuw %"class.ncnn::Mat", ptr %19, i32 0, i32 2
  %24 = load i64, ptr %16, align 8, !tbaa !47
  store i64 %24, ptr %23, align 8, !tbaa !46
  %25 = getelementptr inbounds nuw %"class.ncnn::Mat", ptr %19, i32 0, i32 3
  %26 = load i32, ptr %17, align 4, !tbaa !39
  store i32 %26, ptr %25, align 8, !tbaa !55
  %27 = getelementptr inbounds nuw %"class.ncnn::Mat", ptr %19, i32 0, i32 4
  %28 = load ptr, ptr %18, align 8, !tbaa !70
  store ptr %28, ptr %27, align 8, !tbaa !56
  %29 = getelementptr inbounds nuw %"class.ncnn::Mat", ptr %19, i32 0, i32 5
  store i32 4, ptr %29, align 8, !tbaa !38
  %30 = getelementptr inbounds nuw %"class.ncnn::Mat", ptr %19, i32 0, i32 6
  %31 = load i32, ptr %11, align 4, !tbaa !39
  store i32 %31, ptr %30, align 4, !tbaa !42
  %32 = getelementptr inbounds nuw %"class.ncnn::Mat", ptr %19, i32 0, i32 7
  %33 = load i32, ptr %12, align 4, !tbaa !39
  store i32 %33, ptr %32, align 8, !tbaa !43
  %34 = getelementptr inbounds nuw %"class.ncnn::Mat", ptr %19, i32 0, i32 8
  %35 = load i32, ptr %13, align 4, !tbaa !39
  store i32 %35, ptr %34, align 4, !tbaa !44
  %36 = getelementptr inbounds nuw %"class.ncnn::Mat", ptr %19, i32 0, i32 9
  %37 = load i32, ptr %14, align 4, !tbaa !39
  store i32 %37, ptr %36, align 8, !tbaa !45
  %38 = getelementptr inbounds nuw %"class.ncnn::Mat", ptr %19, i32 0, i32 6
  %39 = load i32, ptr %38, align 4, !tbaa !42
  %40 = sext i32 %39 to i64
  %41 = getelementptr inbounds nuw %"class.ncnn::Mat", ptr %19, i32 0, i32 7
  %42 = load i32, ptr %41, align 8, !tbaa !43
  %43 = sext i32 %42 to i64
  %44 = mul i64 %40, %43
  %45 = getelementptr inbounds nuw %"class.ncnn::Mat", ptr %19, i32 0, i32 8
  %46 = load i32, ptr %45, align 4, !tbaa !44
  %47 = sext i32 %46 to i64
  %48 = mul i64 %44, %47
  %49 = getelementptr inbounds nuw %"class.ncnn::Mat", ptr %19, i32 0, i32 2
  %50 = load i64, ptr %49, align 8, !tbaa !46
  %51 = mul i64 %48, %50
  %52 = call noundef i64 @_ZN4ncnnL9alignSizeEmi(i64 noundef %51, i32 noundef 16)
  %53 = getelementptr inbounds nuw %"class.ncnn::Mat", ptr %19, i32 0, i32 2
  %54 = load i64, ptr %53, align 8, !tbaa !46
  %55 = udiv i64 %52, %54
  %56 = getelementptr inbounds nuw %"class.ncnn::Mat", ptr %19, i32 0, i32 10
  store i64 %55, ptr %56, align 8, !tbaa !57
  ret void
}

; Function Attrs: noinline noreturn nounwind uwtable
define linkonce_odr hidden void @__clang_call_terminate(ptr noundef %0) #7 comdat {
  %2 = call ptr @__cxa_begin_catch(ptr %0) #9
  call void @_ZSt9terminatev() #13
  unreachable
}

; Function Attrs: alwaysinline mustprogress nounwind uwtable
define linkonce_odr hidden noundef ptr @_ZN4ncnn3MatcvPT_IfEEv(ptr noundef nonnull align 8 dereferenceable(72) %0) #3 comdat align 2 {
  %2 = alloca ptr, align 8
  store ptr %0, ptr %2, align 8, !tbaa !35
  %3 = load ptr, ptr %2, align 8
  %4 = getelementptr inbounds nuw %"class.ncnn::Mat", ptr %3, i32 0, i32 0
  %5 = load ptr, ptr %4, align 8, !tbaa !53
  ret ptr %5
}

; Function Attrs: alwaysinline mustprogress nounwind uwtable
define linkonce_odr hidden void @_ZN4ncnn3MatD2Ev(ptr noundef nonnull align 8 dereferenceable(72) %0) unnamed_addr #3 comdat align 2 personality ptr @__gxx_personality_v0 {
  %2 = alloca ptr, align 8
  store ptr %0, ptr %2, align 8, !tbaa !35
  %3 = load ptr, ptr %2, align 8
  invoke void @_ZN4ncnn3Mat7releaseEv(ptr noundef nonnull align 8 dereferenceable(72) %3)
          to label %4 unwind label %5

4:                                                ; preds = %1
  ret void

5:                                                ; preds = %1
  %6 = landingpad { ptr, i32 }
          catch ptr null
  %7 = extractvalue { ptr, i32 } %6, 0
  call void @__clang_call_terminate(ptr %7) #13
  unreachable
}

; Function Attrs: alwaysinline mustprogress nounwind uwtable
define linkonce_odr hidden noundef ptr @_ZN4ncnn3MatcvPT_IKfEEv(ptr noundef nonnull align 8 dereferenceable(72) %0) #3 comdat align 2 {
  %2 = alloca ptr, align 8
  store ptr %0, ptr %2, align 8, !tbaa !35
  %3 = load ptr, ptr %2, align 8
  %4 = getelementptr inbounds nuw %"class.ncnn::Mat", ptr %3, i32 0, i32 0
  %5 = load ptr, ptr %4, align 8, !tbaa !53
  ret ptr %5
}

; Function Attrs: alwaysinline mustprogress uwtable
define linkonce_odr hidden void @_ZN4ncnn3Mat13channel_rangeEii(ptr dead_on_unwind noalias writable sret(%"class.ncnn::Mat") align 8 %0, ptr noundef nonnull align 8 dereferenceable(72) %1, i32 noundef %2, i32 noundef %3) #6 comdat align 2 {
  %5 = alloca ptr, align 8
  %6 = alloca ptr, align 8
  %7 = alloca i32, align 4
  %8 = alloca i32, align 4
  %9 = alloca i1, align 1
  store ptr %0, ptr %5, align 8
  store ptr %1, ptr %6, align 8, !tbaa !35
  store i32 %2, ptr %7, align 4, !tbaa !39
  store i32 %3, ptr %8, align 4, !tbaa !39
  %10 = load ptr, ptr %6, align 8
  store i1 false, ptr %9, align 1
  %11 = getelementptr inbounds nuw %"class.ncnn::Mat", ptr %10, i32 0, i32 6
  %12 = load i32, ptr %11, align 4, !tbaa !42
  %13 = getelementptr inbounds nuw %"class.ncnn::Mat", ptr %10, i32 0, i32 7
  %14 = load i32, ptr %13, align 8, !tbaa !43
  %15 = getelementptr inbounds nuw %"class.ncnn::Mat", ptr %10, i32 0, i32 8
  %16 = load i32, ptr %15, align 4, !tbaa !44
  %17 = load i32, ptr %8, align 4, !tbaa !39
  %18 = getelementptr inbounds nuw %"class.ncnn::Mat", ptr %10, i32 0, i32 0
  %19 = load ptr, ptr %18, align 8, !tbaa !53
  %20 = getelementptr inbounds nuw %"class.ncnn::Mat", ptr %10, i32 0, i32 10
  %21 = load i64, ptr %20, align 8, !tbaa !57
  %22 = load i32, ptr %7, align 4, !tbaa !39
  %23 = sext i32 %22 to i64
  %24 = mul i64 %21, %23
  %25 = getelementptr inbounds nuw %"class.ncnn::Mat", ptr %10, i32 0, i32 2
  %26 = load i64, ptr %25, align 8, !tbaa !46
  %27 = mul i64 %24, %26
  %28 = getelementptr inbounds nuw i8, ptr %19, i64 %27
  %29 = getelementptr inbounds nuw %"class.ncnn::Mat", ptr %10, i32 0, i32 2
  %30 = load i64, ptr %29, align 8, !tbaa !46
  %31 = getelementptr inbounds nuw %"class.ncnn::Mat", ptr %10, i32 0, i32 3
  %32 = load i32, ptr %31, align 8, !tbaa !55
  %33 = getelementptr inbounds nuw %"class.ncnn::Mat", ptr %10, i32 0, i32 4
  %34 = load ptr, ptr %33, align 8, !tbaa !56
  call void @_ZN4ncnn3MatC2EiiiiPvmiPNS_9AllocatorE(ptr noundef nonnull align 8 dereferenceable(72) %0, i32 noundef %12, i32 noundef %14, i32 noundef %16, i32 noundef %17, ptr noundef %28, i64 noundef %30, i32 noundef %32, ptr noundef %34)
  %35 = getelementptr inbounds nuw %"class.ncnn::Mat", ptr %10, i32 0, i32 5
  %36 = load i32, ptr %35, align 8, !tbaa !38
  %37 = getelementptr inbounds nuw %"class.ncnn::Mat", ptr %0, i32 0, i32 5
  store i32 %36, ptr %37, align 8, !tbaa !38
  store i1 true, ptr %9, align 1
  %38 = load i1, ptr %9, align 1
  br i1 %38, label %40, label %39

39:                                               ; preds = %4
  call void @_ZN4ncnn3MatD2Ev(ptr noundef nonnull align 8 dereferenceable(72) %0) #9
  br label %40

40:                                               ; preds = %39, %4
  ret void
}

; Function Attrs: alwaysinline norecurse nounwind uwtable
define internal void @_ZNK4ncnn4Tile7forwardERKNS_3MatERS1_RKNS_6OptionE.omp_outlined.1(ptr noalias noundef %0, ptr noalias noundef %1, ptr noundef nonnull align 4 dereferenceable(4) %2, ptr noundef nonnull align 8 dereferenceable(72) %3, ptr noundef nonnull align 4 dereferenceable(4) %4) #8 personality ptr @__gxx_personality_v0 {
  %6 = alloca ptr, align 8
  %7 = alloca ptr, align 8
  %8 = alloca ptr, align 8
  %9 = alloca ptr, align 8
  %10 = alloca ptr, align 8
  %11 = alloca ptr, align 8
  %12 = alloca i32, align 4
  %13 = alloca i32, align 4
  %14 = alloca i32, align 4
  %15 = alloca i32, align 4
  %16 = alloca i32, align 4
  %17 = alloca i32, align 4
  %18 = alloca i32, align 4
  %19 = alloca i32, align 4
  %20 = alloca i32, align 4
  %21 = alloca ptr, align 8
  %22 = alloca %"class.ncnn::Mat", align 8
  %23 = alloca ptr, align 8
  %24 = alloca %"class.ncnn::Mat", align 8
  store ptr %0, ptr %6, align 8, !tbaa !41
  store ptr %1, ptr %7, align 8, !tbaa !41
  store ptr %2, ptr %8, align 8, !tbaa !41
  store ptr %3, ptr %9, align 8, !tbaa !35
  store ptr %4, ptr %10, align 8, !tbaa !41
  %25 = load ptr, ptr %8, align 8, !tbaa !41
  %26 = load ptr, ptr %9, align 8, !tbaa !35
  %27 = load ptr, ptr %10, align 8, !tbaa !41
  store ptr %26, ptr %11, align 8
  call void @llvm.lifetime.start.p0(i64 4, ptr %12) #9
  call void @llvm.lifetime.start.p0(i64 4, ptr %13) #9
  %28 = load i32, ptr %25, align 4, !tbaa !39
  store i32 %28, ptr %13, align 4, !tbaa !39
  call void @llvm.lifetime.start.p0(i64 4, ptr %14) #9
  %29 = load i32, ptr %13, align 4, !tbaa !39
  %30 = sub nsw i32 %29, 1
  %31 = sdiv i32 %30, 1
  %32 = sub nsw i32 %31, 1
  store i32 %32, ptr %14, align 4, !tbaa !39
  call void @llvm.lifetime.start.p0(i64 4, ptr %15) #9
  store i32 1, ptr %15, align 4, !tbaa !39
  call void @llvm.lifetime.end.p0(i64 4, ptr %15) #9
  %33 = load i32, ptr %13, align 4, !tbaa !39
  %34 = icmp slt i32 1, %33
  br i1 %34, label %35, label %88

35:                                               ; preds = %5
  call void @llvm.lifetime.start.p0(i64 4, ptr %16) #9
  store i32 0, ptr %16, align 4, !tbaa !39
  call void @llvm.lifetime.start.p0(i64 4, ptr %17) #9
  %36 = load i32, ptr %14, align 4, !tbaa !39
  store i32 %36, ptr %17, align 4, !tbaa !39
  call void @llvm.lifetime.start.p0(i64 4, ptr %18) #9
  store i32 1, ptr %18, align 4, !tbaa !39
  call void @llvm.lifetime.start.p0(i64 4, ptr %19) #9
  store i32 0, ptr %19, align 4, !tbaa !39
  call void @llvm.lifetime.start.p0(i64 4, ptr %20) #9
  %37 = load ptr, ptr %6, align 8
  %38 = load i32, ptr %37, align 4, !tbaa !39
  call void @__kmpc_for_static_init_4(ptr @1, i32 %38, i32 34, ptr %19, ptr %16, ptr %17, ptr %18, i32 1, i32 1)
  %39 = load i32, ptr %17, align 4, !tbaa !39
  %40 = load i32, ptr %14, align 4, !tbaa !39
  %41 = icmp sgt i32 %39, %40
  br i1 %41, label %42, label %44

42:                                               ; preds = %35
  %43 = load i32, ptr %14, align 4, !tbaa !39
  br label %46

44:                                               ; preds = %35
  %45 = load i32, ptr %17, align 4, !tbaa !39
  br label %46

46:                                               ; preds = %44, %42
  %47 = phi i32 [ %43, %42 ], [ %45, %44 ]
  store i32 %47, ptr %17, align 4, !tbaa !39
  %48 = load i32, ptr %16, align 4, !tbaa !39
  store i32 %48, ptr %12, align 4, !tbaa !39
  br label %49

49:                                               ; preds = %81, %46
  %50 = load i32, ptr %12, align 4, !tbaa !39
  %51 = load i32, ptr %17, align 4, !tbaa !39
  %52 = icmp sle i32 %50, %51
  br i1 %52, label %54, label %53

53:                                               ; preds = %49
  br label %84

54:                                               ; preds = %49
  %55 = load i32, ptr %12, align 4, !tbaa !39
  %56 = mul nsw i32 %55, 1
  %57 = add nsw i32 1, %56
  store i32 %57, ptr %20, align 4, !tbaa !39
  call void @llvm.lifetime.start.p0(i64 8, ptr %21) #9
  call void @llvm.lifetime.start.p0(i64 72, ptr %22) #9
  %58 = load ptr, ptr %11, align 8, !tbaa !35
  %59 = load i32, ptr %27, align 4, !tbaa !39
  invoke void @_ZN4ncnn3Mat13channel_rangeEii(ptr dead_on_unwind writable sret(%"class.ncnn::Mat") align 8 %22, ptr noundef nonnull align 8 dereferenceable(72) %58, i32 noundef 0, i32 noundef %59)
          to label %60 unwind label %89

60:                                               ; preds = %54
  %61 = invoke noundef ptr @_ZN4ncnn3MatcvPT_IKfEEv(ptr noundef nonnull align 8 dereferenceable(72) %22)
          to label %62 unwind label %89

62:                                               ; preds = %60
  call void @_ZN4ncnn3MatD2Ev(ptr noundef nonnull align 8 dereferenceable(72) %22) #9
  call void @llvm.lifetime.end.p0(i64 72, ptr %22) #9
  store ptr %61, ptr %21, align 8, !tbaa !59
  call void @llvm.lifetime.start.p0(i64 8, ptr %23) #9
  call void @llvm.lifetime.start.p0(i64 72, ptr %24) #9
  %63 = load ptr, ptr %11, align 8, !tbaa !35
  %64 = load i32, ptr %20, align 4, !tbaa !39
  %65 = load i32, ptr %27, align 4, !tbaa !39
  %66 = mul nsw i32 %64, %65
  %67 = load i32, ptr %27, align 4, !tbaa !39
  invoke void @_ZN4ncnn3Mat13channel_rangeEii(ptr dead_on_unwind writable sret(%"class.ncnn::Mat") align 8 %24, ptr noundef nonnull align 8 dereferenceable(72) %63, i32 noundef %66, i32 noundef %67)
          to label %68 unwind label %89

68:                                               ; preds = %62
  %69 = invoke noundef ptr @_ZN4ncnn3MatcvPT_IfEEv(ptr noundef nonnull align 8 dereferenceable(72) %24)
          to label %70 unwind label %89

70:                                               ; preds = %68
  call void @_ZN4ncnn3MatD2Ev(ptr noundef nonnull align 8 dereferenceable(72) %24) #9
  call void @llvm.lifetime.end.p0(i64 72, ptr %24) #9
  store ptr %69, ptr %23, align 8, !tbaa !59
  %71 = load ptr, ptr %23, align 8, !tbaa !59
  %72 = load ptr, ptr %21, align 8, !tbaa !59
  %73 = load ptr, ptr %11, align 8, !tbaa !35
  %74 = getelementptr inbounds nuw %"class.ncnn::Mat", ptr %73, i32 0, i32 10
  %75 = load i64, ptr %74, align 8, !tbaa !57
  %76 = load i32, ptr %27, align 4, !tbaa !39
  %77 = sext i32 %76 to i64
  %78 = mul i64 %75, %77
  %79 = mul i64 %78, 4
  call void @llvm.memcpy.p0.p0.i64(ptr align 4 %71, ptr align 4 %72, i64 %79, i1 false)
  call void @llvm.lifetime.end.p0(i64 8, ptr %23) #9
  call void @llvm.lifetime.end.p0(i64 8, ptr %21) #9
  br label %80

80:                                               ; preds = %70
  br label %81

81:                                               ; preds = %80
  %82 = load i32, ptr %12, align 4, !tbaa !39
  %83 = add nsw i32 %82, 1
  store i32 %83, ptr %12, align 4, !tbaa !39
  br label %49

84:                                               ; preds = %53
  br label %85

85:                                               ; preds = %84
  %86 = load ptr, ptr %6, align 8
  %87 = load i32, ptr %86, align 4, !tbaa !39
  call void @__kmpc_for_static_fini(ptr @1, i32 %87)
  call void @llvm.lifetime.end.p0(i64 4, ptr %20) #9
  call void @llvm.lifetime.end.p0(i64 4, ptr %19) #9
  call void @llvm.lifetime.end.p0(i64 4, ptr %18) #9
  call void @llvm.lifetime.end.p0(i64 4, ptr %17) #9
  call void @llvm.lifetime.end.p0(i64 4, ptr %16) #9
  br label %88

88:                                               ; preds = %85, %5
  call void @llvm.lifetime.end.p0(i64 4, ptr %14) #9
  call void @llvm.lifetime.end.p0(i64 4, ptr %13) #9
  call void @llvm.lifetime.end.p0(i64 4, ptr %12) #9
  ret void

89:                                               ; preds = %68, %62, %60, %54
  %90 = landingpad { ptr, i32 }
          catch ptr null
  %91 = extractvalue { ptr, i32 } %90, 0
  call void @__clang_call_terminate(ptr %91) #13
  unreachable
}