; Function Attrs: alwaysinline norecurse nounwind uwtable
define internal void @_ZNK4ncnn4Tile7forwardERKNS_3MatERS1_RKNS_6OptionE.omp_outlined.1(ptr noalias noundef readonly captures(none) %0, ptr noalias readnone captures(none) %1, ptr noundef nonnull readonly align 4 captures(none) dereferenceable(4) %2, ptr noundef nonnull readonly align 8 captures(none) dereferenceable(72) %3, ptr noundef nonnull readonly align 4 captures(none) dereferenceable(4) %4) #8 personality ptr @__gxx_personality_v0 {
  %6 = alloca i32, align 4
  %7 = alloca i32, align 4
  %8 = alloca i32, align 4
  %9 = alloca i32, align 4
  %10 = load i32, ptr %2, align 4, !tbaa !42
  %11 = icmp sgt i32 %10, 1
  br i1 %11, label %12, label %34

12:                                               ; preds = %5
  %13 = add nsw i32 %10, -2
  call void @llvm.lifetime.start.p0(i64 4, ptr nonnull %6) #9
  store i32 0, ptr %6, align 4, !tbaa !42
  call void @llvm.lifetime.start.p0(i64 4, ptr nonnull %7) #9
  store i32 %13, ptr %7, align 4, !tbaa !42
  call void @llvm.lifetime.start.p0(i64 4, ptr nonnull %8) #9
  store i32 1, ptr %8, align 4, !tbaa !42
  call void @llvm.lifetime.start.p0(i64 4, ptr nonnull %9) #9
  store i32 0, ptr %9, align 4, !tbaa !42
  %14 = load i32, ptr %0, align 4, !tbaa !42
  call void @__kmpc_for_static_init_4(ptr nonnull @1, i32 %14, i32 34, ptr nonnull %9, ptr nonnull %6, ptr nonnull %7, ptr nonnull %8, i32 1, i32 1)
  %15 = load i32, ptr %7, align 4, !tbaa !42
  %16 = call i32 @llvm.smin.i32(i32 %15, i32 %13)
  store i32 %16, ptr %7, align 4, !tbaa !42
  %17 = load i32, ptr %6, align 4, !tbaa !42
  %.not47 = icmp sgt i32 %17, %16
  br i1 %.not47, label %._crit_edge, label %_ZN4ncnn3MatD2Ev.exit.lr.ph

_ZN4ncnn3MatD2Ev.exit.lr.ph:                      ; preds = %12
  %18 = getelementptr inbounds nuw i8, ptr %3, i64 64
  %19 = getelementptr inbounds nuw i8, ptr %3, i64 16
  br label %_ZN4ncnn3MatD2Ev.exit

_ZN4ncnn3MatD2Ev.exit:                            ; preds = %_ZN4ncnn3MatD2Ev.exit.lr.ph, %_ZN4ncnn3MatD2Ev.exit
  %.048 = phi i32 [ %17, %_ZN4ncnn3MatD2Ev.exit.lr.ph ], [ %20, %_ZN4ncnn3MatD2Ev.exit ]
  %20 = add nsw i32 %.048, 1
  %21 = load ptr, ptr %3, align 8, !tbaa !16, !noalias !74
  %22 = load i32, ptr %4, align 4, !tbaa !42
  %23 = mul nsw i32 %22, %20
  %24 = load i64, ptr %18, align 8, !tbaa !17, !noalias !77
  %25 = sext i32 %23 to i64
  %26 = mul i64 %24, %25
  %27 = load i64, ptr %19, align 8, !tbaa !35, !noalias !77
  %28 = mul i64 %26, %27
  %29 = getelementptr inbounds nuw i8, ptr %21, i64 %28
  %30 = sext i32 %22 to i64
  %31 = shl i64 %24, 2
  %32 = mul i64 %31, %30
  call void @llvm.memcpy.p0.p0.i64(ptr align 4 %29, ptr align 4 %21, i64 %32, i1 false)
  %33 = load i32, ptr %7, align 4, !tbaa !42
  %.not.not = icmp slt i32 %.048, %33
  br i1 %.not.not, label %_ZN4ncnn3MatD2Ev.exit, label %._crit_edge

._crit_edge:                                      ; preds = %_ZN4ncnn3MatD2Ev.exit, %12
  call void @__kmpc_for_static_fini(ptr nonnull @1, i32 %14)
  call void @llvm.lifetime.end.p0(i64 4, ptr nonnull %9) #9
  call void @llvm.lifetime.end.p0(i64 4, ptr nonnull %8) #9
  call void @llvm.lifetime.end.p0(i64 4, ptr nonnull %7) #9
  call void @llvm.lifetime.end.p0(i64 4, ptr nonnull %6) #9
  br label %34

34:                                               ; preds = %._crit_edge, %5
  ret void
}